(dp1
V/conditions/mastoiditis
p2
I0
sV/conditions/erythema-multiforme
p3
I2
sV/conditions/menopause
p4
I4
sV/conditions/phimosis
p5
I8
sV/conditions/pharyngitis
p6
I10
sV/conditions/psoriasis
p7
I12
sV/conditions/primary-insomnia
p8
I17
sV/conditions/benign-paroxysmal-positional-vertical-bppv
p9
I19
sV/conditions/spermatocele
p10
I760
sV/conditions/chronic-otitis-media
p11
I116
sV/conditions/skin-polyp
p12
I23
sV/conditions/hyperopia
p13
I24
sV/conditions/vesicoureteral-reflux
p14
I26
sV/conditions/adrenal-cancer
p15
I29
sV/conditions/labyrinthitis
p16
I30
sV/conditions/tonsillar-hypertrophy
p17
I518
sV/conditions/gastritis
p18
I33
sV/conditions/balanitis
p19
I34
sV/conditions/somatization-disorder
p20
I35
sV/conditions/osteochondroma
p21
I38
sV/conditions/lewy-body-dementia
p22
I39
sV/conditions/rheumatic-fever
p23
I41
sV/conditions/breast-cyst
p24
I42
sV/conditions/floaters
p25
I44
sV/conditions/chronic-pancreatitis
p26
I47
sV/conditions/hemarthrosis
p27
I49
sV/conditions/open-wound-of-the-jaw
p28
I51
sV/conditions/anal-fissure
p29
I417
sV/conditions/open-wound-from-surgical-incision
p30
I55
sV/conditions/priapism
p31
I56
sV/conditions/essential-tremor
p32
I59
sV/conditions/head-and-neck-cancer
p33
I60
sV/conditions/vitamin-b12-deficiency
p34
I63
sV/conditions/intracerebral-hemorrhage
p35
I64
sV/conditions/hypothyroidism
p36
I67
sV/conditions/temporary-or-benign-blood-in-urine
p37
I68
sV/conditions/diverticulosis
p38
I69
sV/conditions/frostbite
p39
I71
sV/conditions/congenital-heart-defect
p40
I448
sV/conditions/tuberous-sclerosis
p41
I452
sV/conditions/food-allergy
p42
I74
sV/conditions/ear-wax-impaction
p43
I75
sV/conditions/open-wound-of-the-hand
p44
I76
sV/conditions/uterine-fibroids
p45
I78
sV/conditions/primary-immunodeficiency
p46
I493
sV/conditions/meniere-disease
p47
I80
sV/conditions/open-wound-of-the-mouth
p48
I523
sV/conditions/normal-pressure-hydrocephalus
p49
I88
sV/conditions/female-genitalia-infection
p50
I89
sV/conditions/mononeuritis
p51
I91
sV/conditions/sick-sinus-syndrome
p52
I93
sV/conditions/nasal-polyp
p53
I97
sV/conditions/injury-to-the-leg
p54
I98
sV/conditions/sinus-bradycardia
p55
I100
sV/conditions/infection-of-open-wound
p56
I101
sV/conditions/hypertrophic-obstructive-cardiomyopathy-hocm
p57
I102
sV/conditions/drug-abuse-opioids
p58
I103
sV/conditions/cardiomyopathy
p59
I104
sV/conditions/dermatitis-due-to-sun-exposure
p60
I105
sV/conditions/bell-palsy
p61
I106
sV/conditions/hemolytic-anemia
p62
I107
sV/conditions/alzheimer-disease
p63
I108
sV/conditions/diabetes-insipidus
p64
I109
sV/conditions/pancreatic-cancer
p65
I113
sV/conditions/fibrocystic-breast-disease
p66
I115
sV/conditions/induced-abortion
p67
I694
sV/conditions/hypovolemia
p68
I120
sV/conditions/acanthosis-nigricans
p69
I122
sV/conditions/joint-effusion
p70
I124
sV/conditions/kidney-cancer
p71
I126
sV/conditions/epididymitis
p72
I128
sV/conditions/acute-respiratory-distress-syndrome-ards
p73
I131
sV/conditions/uterine-cancer
p74
I132
sV/conditions/adjustment-reaction
p75
I133
sV/conditions/thyroid-cancer
p76
I134
sV/conditions/lymphogranuloma-venereum
p77
I507
sV/conditions/scabies
p78
I15
sV/conditions/trichomonas-infection
p79
I18
sV/conditions/open-wound-of-the-foot
p80
I28
sV/conditions/congenital-rubella
p81
I141
sV/conditions/tourette-syndrome
p82
I535
sV/conditions/drug-poisoning-due-to-medication
p83
I145
sV/conditions/thrombocytopenia
p84
I146
sV/conditions/conduct-disorder
p85
I148
sV/conditions/carpal-tunnel-syndrome
p86
I519
sV/conditions/acute-stress-reaction
p87
I152
sV/conditions/breast-cancer
p88
I153
sV/conditions/gum-disease
p89
I155
sV/conditions/narcolepsy
p90
I537
sV/conditions/dislocation-of-the-wrist
p91
I164
sV/conditions/skin-pigmentation-disorder
p92
I166
sV/conditions/juvenile-rheumatoid-arthritis
p93
I171
sV/conditions/eustachian-tube-dysfunction-ear-disorder
p94
I172
sV/conditions/fracture-of-the-arm
p95
I174
sV/conditions/chickenpox
p96
I178
sV/conditions/hyperemesis-gravidarum
p97
I180
sV/conditions/actinic-keratosis
p98
I127
sV/conditions/injury-of-the-ankle
p99
I183
sV/conditions/benign-prostatic-hyperplasia-bph
p100
I186
sV/conditions/dissociative-disorder
p101
I189
sV/conditions/perirectal-infection
p102
I191
sV/conditions/decubitus-ulcer
p103
I192
sV/conditions/vertebrobasilar-insufficiency
p104
I194
sV/conditions/typhoid-fever
p105
I458
sV/conditions/restless-leg-syndrome
p106
I199
sV/conditions/endometriosis
p107
I200
sV/conditions/sepsis
p108
I203
sV/conditions/urethral-disorder
p109
I497
sV/conditions/fracture-of-the-foot
p110
I205
sV/conditions/thyroid-disease
p111
I208
sV/conditions/irritable-bowel-syndrome
p112
I286
sV/conditions/osteoporosis
p113
I214
sV/conditions/abscess-of-the-lung
p114
I215
sV/conditions/marijuana-abuse
p115
I585
sV/conditions/hpv
p116
I222
sV/conditions/gas-gangrene
p117
I224
sV/conditions/atrial-fibrillation
p118
I226
sV/conditions/diabetic-retinopathy
p119
I228
sV/conditions/tension-headache
p120
I230
sV/conditions/chronic-pain-disorder
p121
I231
sV/conditions/tendinitis
p122
I235
sV/conditions/galactorrhea-of-unknown-cause
p123
I236
sV/conditions/seborrheic-keratosis
p124
I733
sV/conditions/carbon-monoxide-poisoning
p125
I242
sV/conditions/carcinoid-syndrome
p126
I244
sV/conditions/interstitial-lung-disease
p127
I245
sV/conditions/foreign-body-in-the-gastrointestinal-tract
p128
I246
sV/conditions/foreign-body-in-the-nose
p129
I247
sV/conditions/vitamin-b-deficiency
p130
I248
sV/conditions/female-infertility-of-unknown-cause
p131
I770
sV/conditions/delirium
p132
I251
sV/conditions/hypergammaglobulinemia
p133
I252
sV/conditions/ganglion-cyst
p134
I3
sV/conditions/cholesteatoma
p135
I255
sV/conditions/postoperative-infection
p136
I256
sV/conditions/liver-cancer
p137
I258
sV/conditions/flat-feet
p138
I260
sV/conditions/aortic-valve-disease
p139
I261
sV/conditions/metastatic-cancer
p140
I262
sV/conditions/factitious-disorder
p141
I265
sV/conditions/blepharitis
p142
I266
sV/conditions/acute-pancreatitis
p143
I267
sV/conditions/myositis
p144
I409
sV/conditions/chagas-disease
p145
I269
sV/conditions/pulmonary-fibrosis
p146
I85
sV/conditions/hypocalcemia
p147
I563
sV/conditions/subconjunctival-hemorrhage
p148
I273
sV/conditions/sialoadenitis
p149
I274
sV/conditions/otosclerosis
p150
I276
sV/conditions/alcohol-withdrawal
p151
I278
sV/conditions/eye-alignment-disorder
p152
I279
sV/conditions/premature-atrial-contractions-pacs
p153
I282
sV/conditions/birth-trauma
p154
I284
sV/conditions/breast-infection-mastitis
p155
I45
sV/conditions/hepatic-encephalopathy
p156
I210
sV/conditions/drug-reaction
p157
I288
sV/conditions/conjunctivitis-due-to-bacteria
p158
I289
sV/conditions/ileus
p159
I292
sV/conditions/cataract
p160
I294
sV/conditions/chalazion
p161
I296
sV/conditions/polycythemia-vera
p162
I297
sV/conditions/retinal-detachment
p163
I357
sV/conditions/epidural-hemorrhage
p164
I301
sV/conditions/acute-kidney-injury
p165
I304
sV/conditions/moyamoya-disease
p166
I305
sV/conditions/dementia
p167
I306
sV/conditions/chronic-rheumatic-fever
p168
I307
sV/conditions/choledocholithiasis
p169
I308
sV/conditions/erectile-dysfunction
p170
I310
sV/conditions/cryptococcosis
p171
I311
sV/conditions/sickle-cell-crisis
p172
I312
sV/conditions/pericarditis
p173
I388
sV/conditions/myoclonus
p174
I320
sV/conditions/overflow-incontinence
p175
I479
sV/conditions/abdominal-aortic-aneurysm
p176
I488
sV/conditions/poisoning-due-to-analgesics
p177
I328
sV/conditions/gastroesophageal-reflux-disease-gerd
p178
I329
sV/conditions/reactive-arthritis
p179
I331
sV/conditions/cervical-cancer
p180
I333
sV/conditions/gestational-diabetes
p181
I335
sV/conditions/meningitis
p182
I337
sV/conditions/torticollis
p183
I542
sV/conditions/ectropion
p184
I340
sV/conditions/acute-sinusitis
p185
I341
sV/conditions/cryptorchidism
p186
I342
sV/conditions/trigeminal-neuralgia
p187
I344
sV/conditions/scarlet-fever
p188
I581
sV/conditions/obstructive-sleep-apnea-osa
p189
I347
sV/conditions/hypertensive-heart-disease
p190
I598
sV/conditions/cervical-disorder
p191
I349
sV/conditions/anxiety
p192
I350
sV/conditions/heat-exhaustion
p193
I352
sV/conditions/personality-disorder
p194
I353
sV/conditions/seborrheic-dermatitis
p195
I354
sV/conditions/rhabdomyolysis
p196
I639
sV/conditions/fracture-of-the-finger
p197
I358
sV/conditions/pseudotumor-cerebri
p198
I359
sV/conditions/liver-disease
p199
I360
sV/conditions/testicular-cancer
p200
I362
sV/conditions/viral-hepatitis
p201
I363
sV/conditions/paroxysmal-ventricular-tachycardia
p202
I375
sV/conditions/sporotrichosis
p203
I376
sV/conditions/bladder-obstruction
p204
I381
sV/conditions/bone-cancer
p205
I385
sV/conditions/epilepsy
p206
I315
sV/conditions/panic-attack
p207
I543
sV/conditions/anemia-of-chronic-disease
p208
I391
sV/conditions/chronic-obstructive-pulmonary-disease-copd
p209
I397
sV/conditions/osteomyelitis
p210
I398
sV/conditions/cardiac-arrest
p211
I401
sV/conditions/chorioretinitis
p212
I402
sV/conditions/stress-incontinence
p213
I403
sV/conditions/cholecystitis
p214
I162
sV/conditions/vitreous-degeneration
p215
I589
sV/conditions/dislocation-of-the-shoulder
p216
I408
sV/conditions/intertrigo-skin-condition
p217
I410
sV/conditions/peripheral-arterial-embolism
p218
I413
sV/conditions/venous-insufficiency
p219
I414
sV/conditions/hammer-toe
p220
I415
sV/conditions/smoking-or-tobacco-addiction
p221
I418
sV/conditions/heart-failure
p222
I420
sV/conditions/dry-eye-of-unknown-cause
p223
I424
sV/conditions/soft-tissue-sarcoma
p224
I425
sV/conditions/cat-scratch-disease
p225
I426
sV/conditions/complex-regional-pain-syndrome
p226
I430
sV/conditions/leukemia
p227
I435
sV/conditions/chronic-knee-pain
p228
I27
sV/conditions/central-atherosclerosis
p229
I437
sV/conditions/hydatidiform-mole
p230
I442
sV/conditions/vaginal-yeast-infection
p231
I444
sV/conditions/lateral-epicondylitis-tennis-elbow
p232
I446
sV/conditions/hydrocele-of-the-testicle
p233
I72
sV/conditions/parasitic-disease
p234
I373
sV/conditions/g6pd-enzyme-deficiency
p235
I451
sV/conditions/pneumoconiosis
p236
I453
sV/conditions/pain-disorder-affecting-the-neck
p237
I456
sV/conditions/flu
p238
I460
sV/conditions/sciatica
p239
I463
sV/conditions/gastroparesis
p240
I466
sV/conditions/spontaneous-abortion
p241
I467
sV/conditions/oral-mucosal-lesion
p242
I470
sV/conditions/callus
p243
I471
sV/conditions/pinguecula
p244
I473
sV/conditions/idiopathic-excessive-menstruation
p245
I474
sV/conditions/mumps
p246
I478
sV/conditions/west-nile-virus
p247
I641
sV/conditions/leptospirosis
p248
I481
sV/conditions/ischemic-heart-disease
p249
I483
sV/conditions/hirschsprung-disease
p250
I485
sV/conditions/hypercholesterolemia
p251
I486
sV/conditions/plague
p252
I487
sV/conditions/osteoarthritis
p253
I489
sV/conditions/bursitis
p254
I491
sV/conditions/fracture-of-the-leg
p255
I492
sV/conditions/drug-withdrawal
p256
I121
sV/conditions/hemochromatosis
p257
I494
sV/conditions/syringomyelia
p258
I680
sV/conditions/polymyalgia-rheumatica
p259
I498
sV/conditions/mittelschmerz
p260
I501
sV/conditions/neonatal-jaundice
p261
I711
sV/conditions/cerebral-palsy
p262
I504
sV/conditions/hemiplegia
p263
I607
sV/conditions/sarcoidosis
p264
I511
sV/conditions/urinary-tract-obstruction
p265
I514
sV/conditions/thoracic-aortic-aneurysm
p266
I515
sV/conditions/paget-disease
p267
I517
sV/conditions/necrotizing-fasciitis
p268
I520
sV/conditions/toxic-multinodular-goiter
p269
I522
sV/conditions/drug-abuse-methamphetamine
p270
I477
sV/conditions/acute-bronchitis
p271
I524
sV/conditions/urge-incontinence
p272
I142
sV/conditions/psychotic-disorder
p273
I533
sV/conditions/cornea-infection
p274
I534
sV/conditions/fracture-of-the-shoulder
p275
I538
sV/conditions/pinworm-infection
p276
I540
sV/conditions/abscess-of-nose
p277
I175
sV/conditions/encephalitis
p278
I545
sV/conditions/intestinal-disease
p279
I546
sV/conditions/oral-leukoplakia
p280
I530
sV/conditions/scoliosis
p281
I551
sV/conditions/paroxysmal-supraventricular-tachycardia
p282
I552
sV/conditions/bladder-cancer
p283
I553
sV/conditions/teething-syndrome
p284
I554
sV/conditions/dumping-syndrome
p285
I555
sV/conditions/eczema
p286
I557
sV/conditions/scleritis
p287
I272
sV/conditions/post-traumatic-stress-disorder-ptsd
p288
I567
sV/conditions/arthritis-of-the-hip
p289
I568
sV/conditions/jaw-disorder
p290
I569
sV/conditions/parathyroid-adenoma
p291
I570
sV/conditions/spherocytosis
p292
I571
sV/conditions/cysticercosis
p293
I572
sV/conditions/hyperhidrosis
p294
I573
sV/conditions/panic-disorder
p295
I574
sV/conditions/orbital-cellulitis
p296
I582
sV/conditions/mitral-valve-disease
p297
I583
sV/conditions/open-wound-of-the-chest
p298
I584
sV/conditions/fracture-of-the-neck
p299
I384
sV/conditions/onychomycosis
p300
I587
sV/conditions/pain-after-an-operation
p301
I406
sV/conditions/substance-related-mental-disorder
p302
I591
sV/conditions/obsessive-compulsive-disorder-ocd
p303
I592
sV/conditions/tonsillitis
p304
I593
sV/conditions/open-wound-of-the-knee
p305
I596
sV/conditions/mastectomy
p306
I597
sV/conditions/diaper-rash--2
p307
I348
sV/conditions/problem-during-pregnancy
p308
I601
sV/conditions/oral-thrush-yeast-infection
p309
I490
sV/conditions/thalassemia
p310
I605
sV/conditions/glaucoma
p311
I703
sV/conditions/trichinosis
p312
I774
sV/conditions/de-quervain-disease
p313
I608
sV/conditions/vitreous-hemorrhage
p314
I610
sV/conditions/rheumatoid-arthritis
p315
I536
sV/conditions/lymphedema--2
p316
I612
sV/conditions/abscess-of-the-pharynx
p317
I613
sV/conditions/open-wound-of-the-head
p318
I617
sV/conditions/open-wound-of-the-arm
p319
I618
sV/conditions/cervicitis
p320
I625
sV/conditions/hidradenitis-suppurativa
p321
I218
sV/conditions/thrombophlebitis
p322
I646
sV/conditions/hematoma
p323
I630
sV/conditions/wilson-disease
p324
I631
sV/conditions/primary-kidney-disease
p325
I634
sV/conditions/injury-to-the-finger
p326
I704
sV/conditions/eating-disorder
p327
I640
sV/conditions/laryngitis
p328
I650
sV/conditions/foreign-body-in-the-ear
p329
I427
sV/conditions/poisoning-due-to-antidepressants
p330
I662
sV/conditions/spina-bifida
p331
I664
sV/conditions/pregnancy
p332
I665
sV/conditions/inguinal-hernia
p333
I668
sV/conditions/pyelonephritis
p334
I669
sV/conditions/protein-deficiency
p335
I671
sV/conditions/seasonal-allergies-hay-fever
p336
I675
sV/conditions/open-wound-of-the-cheek
p337
I676
sV/conditions/pick-disease
p338
I62
sV/conditions/emphysema
p339
I681
sV/conditions/toxoplasmosis
p340
I682
sV/conditions/patau-syndrome
p341
I684
sV/conditions/crohn-disease
p342
I687
sV/conditions/gastroduodenal-ulcer
p343
I190
sV/conditions/intestinal-cancer
p344
I77
sV/conditions/lymphoma
p345
I690
sV/conditions/testicular-disorder
p346
I691
sV/conditions/headache-after-lumbar-puncture
p347
I692
sV/conditions/ear-drum-damage
p348
I693
sV/conditions/psychosexual-disorder
p349
I786
sV/conditions/ovarian-cancer
p350
I699
sV/conditions/spinocerebellar-ataxia
p351
I737
sV/conditions/chondromalacia-of-the-patella
p352
I705
sV/conditions/pneumonia
p353
I706
sV/conditions/varicose-veins
p354
I710
sV/conditions/scurvy
p355
I713
sV/conditions/temporomandibular-joint-disorder
p356
I775
sV/conditions/iridocyclitis
p357
I715
sV/conditions/bunion
p358
I322
sV/conditions/scleroderma
p359
I720
sV/conditions/adrenal-adenoma
p360
I343
sV/conditions/fluid-overload
p361
I722
sV/conditions/croup
p362
I361
sV/conditions/asperger-syndrome
p363
I724
sV/conditions/dental-caries
p364
I725
sV/conditions/hepatitis-due-to-a-toxin
p365
I727
sV/conditions/atrophic-skin-condition
p366
I728
sV/conditions/subacute-thyroiditis
p367
I736
sV/conditions/von-hippel-lindau-disease
p368
I741
sV/conditions/connective-tissue-disorder
p369
I744
sV/conditions/poisoning-due-to-sedatives
p370
I87
sV/conditions/kaposi-sarcoma
p371
I750
sV/conditions/open-wound-of-the-hip
p372
I754
sV/conditions/envenomation-from-spider-or-animal-bite
p373
I755
sV/conditions/vulvodynia
p374
I756
sV/conditions/pulmonary-embolism
p375
I564
sV/conditions/degenerative-disc-disease
p376
I759
sV/conditions/vaginitis
p377
I660
sV/conditions/open-wound-of-the-finger
p378
I765
sV/conditions/alcohol-intoxication
p379
I766
sV/conditions/hydrocephalus
p380
I767
sV/conditions/parkinson-disease
p381
I648
sV/conditions/fracture-of-the-vertebra
p382
I462
sV/conditions/hyperosmotic-hyperketotic-state
p383
I773
sV/conditions/open-wound-of-the-shoulder
p384
I776
sV/conditions/poisoning-due-to-ethylene-glycol
p385
I779
sV/conditions/heart-attack
p386
I678
sV/conditions/attention-deficit-hyperactivity-disorder-adhd
p387
I188
sV/conditions/otitis-media
p388
I785
sV/conditions/idiopathic-infrequent-menstruation
p389
I700
sV/conditions/insect-bite
p390
I787
sV/conditions/glucocorticoid-deficiency
p391
I788
sV/conditions/acute-fatty-liver-of-pregnancy-aflp
p392
I48
sV/conditions/turner-syndrome
p393
I793
sV/conditions/deep-vein-thrombosis-dvt
p394
I794
sV/conditions/spinal-stenosis
p395
I795
sV/conditions/bronchiectasis
p396
I777
sV/conditions/diabetic-kidney-disease
p397
I1
sV/conditions/fetal-alcohol-syndrome
p398
I5
sV/conditions/muscular-dystrophy
p399
I6
sV/conditions/lichen-simplex
p400
I7
sV/conditions/avascular-necrosis
p401
I9
sV/conditions/adhesive-capsulitis-of-the-shoulder
p402
I11
sV/conditions/fracture-of-the-patella
p403
I13
sV/conditions/tooth-disorder
p404
I16
sV/conditions/peritonitis
p405
I661
sV/conditions/fungal-infection-of-the-hair
p406
I20
sV/conditions/aphthous-ulcer
p407
I21
sV/conditions/rosacea
p408
I22
sV/conditions/open-wound-of-the-abdomen
p409
I25
sV/conditions/empyema
p410
I140
sV/conditions/pyloric-stenosis
p411
I177
sV/conditions/placenta-previa
p412
I36
sV/conditions/whooping-cough
p413
I40
sV/conditions/salivary-gland-disorder
p414
I390
sV/conditions/brain-cancer
p415
I285
sV/conditions/nerve-impingement-near-the-shoulder
p416
I46
sV/conditions/social-phobia
p417
I237
sV/conditions/cystitis
p418
I50
sV/conditions/rabies
p419
I321
sV/conditions/presbyopia
p420
I52
sV/conditions/vaginal-cyst
p421
I53
sV/conditions/chronic-kidney-disease
p422
I58
sV/conditions/blepharospasm
p423
I61
sV/conditions/subdural-hemorrhage
p424
I666
sV/conditions/myopia
p425
I66
sV/conditions/folate-deficiency
p426
I70
sV/conditions/high-blood-pressure
p427
I686
sV/conditions/poisoning-due-to-opioids
p428
I73
sV/conditions/spondylolisthesis
p429
I781
sV/conditions/colonic-polyp
p430
I79
sV/conditions/poisoning-due-to-antihypertensives
p431
I496
sV/conditions/poisoning-due-to-anticonvulsants
p432
I81
sV/conditions/corneal-abrasion
p433
I443
sV/conditions/poisoning-due-to-antimicrobial-drugs
p434
I83
sV/conditions/poisoning-due-to-gas
p435
I84
sV/conditions/ascending-cholangitis
p436
I673
sV/conditions/chronic-back-pain
p437
I86
sV/conditions/vocal-cord-polyp
p438
I544
sV/conditions/mucositis
p439
I92
sV/conditions/bone-spur-of-the-calcaneous
p440
I94
sV/conditions/impetigo
p441
I95
sV/conditions/gout
p442
I96
sV/conditions/kidney-failure
p443
I99
sV/conditions/vasculitis
p444
I110
sV/conditions/hiatal-hernia
p445
I111
sV/conditions/dengue-fever
p446
I112
sV/conditions/fracture-of-the-rib
p447
I114
sV/conditions/diabetic-ketoacidosis
p448
I117
sV/conditions/heart-block
p449
I118
sV/conditions/septic-arthritis
p450
I119
sV/conditions/dislocation-of-the-ankle
p451
I123
sV/conditions/skin-cancer
p452
I125
sV/conditions/thyroid-nodule
p453
I129
sV/conditions/tinnitus-of-unknown-cause
p454
I674
sV/conditions/gallstone
p455
I90
sV/conditions/vitamin-d-deficiency
p456
I689
sV/conditions/anal-fistula
p457
I135
sV/conditions/neuralgia
p458
I136
sV/conditions/behcet-disease
p459
I137
sV/conditions/allergy
p460
I138
sV/conditions/acute-glaucoma
p461
I139
sV/conditions/tracheitis
p462
I677
sV/conditions/lumbago
p463
I144
sV/conditions/concussion
p464
I149
sV/conditions/bladder-disorder
p465
I151
sV/conditions/pulmonary-hypertension
p466
I154
sV/conditions/pneumothorax
p467
I156
sV/conditions/aspergillosis
p468
I157
sV/conditions/injury-to-the-trunk
p469
I159
sV/conditions/tic-movement-disorder
p470
I160
sV/conditions/hemorrhoids
p471
I161
sV/conditions/iron-deficiency-anemia
p472
I404
sV/conditions/cyst-of-the-eyelid
p473
I163
sV/conditions/paronychia
p474
I165
sV/conditions/pelvic-organ-prolapse
p475
I168
sV/conditions/sickle-cell-anemia
p476
I158
sV/conditions/peritonsillar-abscess
p477
I170
sV/conditions/open-wound-of-the-ear
p478
I173
sV/conditions/raynaud-disease
p479
I176
sV/conditions/otitis-externa-swimmer-s-ear
p480
I179
sV/conditions/dysthymic-disorder
p481
I182
sV/conditions/endometrial-cancer
p482
I184
sV/conditions/trichiasis
p483
I185
sV/conditions/tuberculosis
p484
I688
sV/conditions/sebaceous-cyst
p485
I529
sV/conditions/injury-to-the-knee
p486
I193
sV/conditions/stomach-cancer
p487
I195
sV/conditions/acariasis
p488
I196
sV/conditions/hyperlipidemia
p489
I197
sV/conditions/vitamin-a-deficiency
p490
I198
sV/conditions/gonorrhea
p491
I201
sV/conditions/allergy-to-animals
p492
I202
sV/conditions/primary-thrombocythemia
p493
I645
sV/conditions/idiopathic-painful-menstruation
p494
I502
sV/conditions/ingrown-toe-nail
p495
I206
sV/conditions/muscle-spasm
p496
I207
sV/conditions/retinopathy-due-to-high-blood-pressure
p497
I521
sV/conditions/idiopathic-nonmenstrual-bleeding
p498
I211
sV/conditions/conductive-hearing-loss
p499
I213
sV/conditions/marfan-syndrome
p500
I216
sV/conditions/dislocation-of-the-hip
p501
I219
sV/conditions/acute-bronchospasm
p502
I220
sV/conditions/atrophic-vaginitis
p503
I221
sV/conditions/premature-ovarian-failure
p504
I223
sV/conditions/intracranial-hemorrhage
p505
I225
sV/conditions/vulvar-cancer
p506
I271
sV/conditions/dyshidrosis
p507
I57
sV/conditions/hypernatremia
p508
I169
sV/conditions/open-wound-of-the-face
p509
I232
sV/conditions/conjunctivitis-due-to-allergy
p510
I233
sV/conditions/guillain-barre-syndrome
p511
I234
sV/conditions/fibroadenoma
p512
I714
sV/conditions/malignant-hypertension
p513
I638
sV/conditions/polycystic-kidney-disease
p514
I238
sV/conditions/pelvic-inflammatory-disease
p515
I239
sV/conditions/cystic-fibrosis
p516
I241
sV/conditions/rotator-cuff-injury
p517
I738
sV/conditions/astigmatism
p518
I243
sV/conditions/nose-disorder
p519
I757
sV/conditions/congenital-malformation-syndrome
p520
I249
sV/conditions/alcohol-abuse
p521
I250
sV/conditions/broken-tooth
p522
I253
sV/conditions/atrial-flutter
p523
I254
sV/conditions/celiac-disease
p524
I508
sV/conditions/myocarditis
p525
I257
sV/conditions/drug-abuse-cocaine
p526
I259
sV/conditions/premature-rupture-of-amniotic-membrane
p527
I54
sV/conditions/amyotrophic-lateral-sclerosis-als
p528
I264
sV/conditions/developmental-disability
p529
I268
sV/conditions/blastomycosis
p530
I270
sV/conditions/syphilis
p531
I275
sV/conditions/lead-poisoning
p532
I277
sV/conditions/melanoma
p533
I280
sV/conditions/pilonidal-cyst
p534
I283
sV/conditions/air-embolism
p535
I287
sV/conditions/cirrhosis
p536
I229
sV/conditions/urethral-valves
p537
I290
sV/conditions/cold-sore
p538
I291
sV/conditions/esophagitis
p539
I293
sV/conditions/pulmonary-congestion
p540
I295
sV/conditions/hydronephrosis
p541
I298
sV/conditions/missed-abortion
p542
I299
sV/conditions/pleural-effusion
p543
I300
sV/conditions/optic-neuritis
p544
I302
sV/conditions/injury-to-internal-organ
p545
I309
sV/conditions/hyponatremia
p546
I367
sV/conditions/transient-ischemic-attack
p547
I370
sV/conditions/impulse-control-disorder
p548
I313
sV/conditions/dislocation-of-the-vertebra
p549
I263
sV/conditions/lice
p550
I316
sV/conditions/meckel-diverticulum
p551
I317
sV/conditions/indigestion
p552
I318
sV/conditions/open-wound-of-the-lip
p553
I319
sV/conditions/fracture-of-the-facial-bones
p554
I702
sV/conditions/corneal-disorder
p555
I716
sV/conditions/skin-disorder
p556
I323
sV/conditions/kidney-stone
p557
I324
sV/conditions/foreign-body-in-the-throat
p558
I325
sV/conditions/alcoholic-liver-disease
p559
I326
sV/conditions/fracture-of-the-hand
p560
I327
sV/conditions/diabetes
p561
I330
sV/conditions/idiopathic-irregular-menstrual-cycle
p562
I332
sV/conditions/chronic-glaucoma
p563
I334
sV/conditions/alopecia
p564
I336
sV/conditions/hypokalemia
p565
I338
sV/conditions/neuropathy-due-to-drugs
p566
I339
sV/conditions/intracranial-abscess
p567
I559
sV/conditions/pityriasis-rosea
p568
I721
sV/conditions/rectal-disorder
p569
I345
sV/conditions/lymphadenitis
p570
I346
sV/conditions/kidney-disease-due-to-longstanding-hypertension
p571
I351
sV/conditions/herpangina
p572
I355
sV/conditions/syndrome-of-inappropriate-secretion-of-adh-siadh
p573
I356
sV/conditions/fracture-of-the-skull
p574
I449
sV/conditions/peripheral-nerve-disorder
p575
I364
sV/conditions/magnesium-deficiency
p576
I365
sV/conditions/multiple-sclerosis
p577
I366
sV/conditions/insulin-overdose
p578
I368
sV/conditions/amblyopia
p579
I369
sV/conditions/diabetic-peripheral-neuropathy
p580
I371
sV/conditions/itching-of-unknown-cause
p581
I372
sV/conditions/hirsutism
p582
I374
sV/conditions/thoracic-outlet-syndrome
p583
I377
sV/conditions/strep-throat
p584
I379
sV/conditions/pterygium
p585
I380
sV/conditions/yeast-infection
p586
I382
sV/conditions/central-retinal-artery-or-vein-occlusion
p587
I383
sV/conditions/aphakia
p588
I386
sV/conditions/extrapyramidal-effect-of-drugs
p589
I387
sV/conditions/injury-to-the-hip
p590
I389
sV/conditions/pelvic-fistula
p591
I303
sV/conditions/acute-bronchiolitis
p592
I392
sV/conditions/conversion-disorder
p593
I393
sV/conditions/hashimoto-thyroiditis
p594
I394
sV/conditions/presbyacusis
p595
I395
sV/conditions/noninfectious-gastroenteritis
p596
I396
sV/conditions/achalasia
p597
I399
sV/conditions/varicocele-of-the-testicles
p598
I400
sV/conditions/graves-disease
p599
I405
sV/conditions/polycystic-ovarian-syndrome-pcos
p600
I407
sV/conditions/viral-warts
p601
I411
sV/conditions/pituitary-disorder
p602
I412
sV/conditions/chancroid
p603
I416
sV/conditions/urethritis
p604
I419
sV/conditions/colorectal-cancer
p605
I421
sV/conditions/asthma
p606
I422
sV/conditions/granuloma-inguinale
p607
I423
sV/conditions/ectopic-pregnancy
p608
I428
sV/conditions/intestinal-malabsorption
p609
I429
sV/conditions/endophthalmitis
p610
I431
sV/conditions/autonomic-nervous-system-disorder
p611
I432
sV/conditions/anemia
p612
I433
sV/conditions/huntington-disease
p613
I434
sV/conditions/goiter
p614
I436
sV/conditions/open-wound-of-the-back
p615
I438
sV/conditions/fracture-of-the-ankle
p616
I439
sV/conditions/poisoning-due-to-antipsychotics
p617
I440
sV/conditions/chlamydia
p618
I441
sV/conditions/pyogenic-skin-infection
p619
I447
sV/conditions/stroke
p620
I649
sV/conditions/lung-contusion
p621
I450
sV/conditions/peripheral-arterial-disease
p622
I454
sV/conditions/pituitary-adenoma
p623
I455
sV/conditions/hemophilia
p624
I457
sV/conditions/crushing-injury
p625
I459
sV/conditions/vulvar-disorder
p626
I461
sV/conditions/contact-dermatitis
p627
I445
sV/conditions/schizophrenia
p628
I464
sV/conditions/fungal-infection-of-the-skin
p629
I465
sV/conditions/autism
p630
I281
sV/conditions/deviated-nasal-septum
p631
I468
sV/conditions/atrophy-of-the-corpus-cavernosum
p632
I469
sV/conditions/injury-to-the-abdomen
p633
I472
sV/conditions/bone-disorder
p634
I475
sV/conditions/scar
p635
I476
sV/conditions/premature-ventricular-contractions-pvcs
p636
I505
sV/conditions/subarachnoid-hemorrhage
p637
I742
sV/conditions/hypospadias
p638
I480
sV/conditions/benign-kidney-cyst
p639
I482
sV/conditions/ischemia-of-the-bowel
p640
I484
sV/conditions/spondylosis
p641
I735
sV/conditions/pulmonary-eosinophilia
p642
I14
sV/conditions/zenker-diverticulum
p643
I495
sV/conditions/hormone-disorder
p644
I204
sV/conditions/uterine-atony
p645
I499
sV/conditions/pulmonic-valve-disease
p646
I500
sV/conditions/prostatitis
p647
I719
sV/conditions/fat-embolism
p648
I503
sV/conditions/sensorineural-hearing-loss
p649
I506
sV/conditions/myelodysplastic-syndrome
p650
I181
sV/conditions/coagulation-bleeding-disorder
p651
I509
sV/conditions/multiple-myeloma
p652
I510
sV/conditions/cranial-nerve-palsy
p653
I512
sV/conditions/injury-to-the-hand
p654
I513
sV/conditions/histoplasmosis
p655
I516
sV/conditions/open-wound-of-the-neck
p656
I32
sV/conditions/appendicitis
p657
I37
sV/conditions/endometrial-hyperplasia
p658
I209
sV/conditions/foreign-body-in-the-eye
p659
I525
sV/conditions/depression--2
p660
I526
sV/conditions/lichen-planus
p661
I527
sV/conditions/abdominal-hernia
p662
I528
sV/conditions/lymphangitis
p663
I43
sV/conditions/chronic-inflammatory-demyelinating-polyneuropathy-cidp
p664
I532
sV/conditions/intestinal-obstruction
p665
I378
sV/conditions/arrhythmia
p666
I143
sV/conditions/shingles-herpes-zoster
p667
I150
sV/conditions/macular-degeneration
p668
I539
sV/conditions/dislocation-of-the-knee
p669
I541
sV/conditions/postpartum-depression
p670
I547
sV/conditions/ovarian-cyst
p671
I548
sV/conditions/tietze-syndrome
p672
I549
sV/conditions/vaginismus
p673
I550
sV/conditions/idiopathic-absence-of-menstruation
p674
I217
sV/conditions/hypoglycemia
p675
I556
sV/conditions/hemorrhagic-fever
p676
I604
sV/conditions/neurofibromatosis
p677
I558
sV/conditions/genital-herpes
p678
I560
sV/conditions/molluscum-contagiosum
p679
I561
sV/conditions/stye
p680
I562
sV/conditions/down-syndrome
p681
I147
sV/conditions/dislocation-of-the-finger
p682
I565
sV/conditions/cellulitis-or-abscess-of-mouth
p683
I566
sV/conditions/esophageal-varices
p684
I575
sV/conditions/gastrointestinal-hemorrhage
p685
I576
sV/conditions/valley-fever
p686
I577
sV/conditions/bipolar-disorder
p687
I578
sV/conditions/dislocation-of-the-patella
p688
I579
sV/conditions/fracture-of-the-jaw
p689
I580
sV/conditions/gallbladder-cancer
p690
I586
sV/conditions/friedrich-ataxia
p691
I588
sV/conditions/cushing-syndrome
p692
I590
sV/conditions/rocky-mountain-spotted-fever
p693
I594
sV/conditions/viral-exanthem
p694
I764
sV/conditions/urethral-stricture
p695
I599
sV/conditions/amyloidosis
p696
I600
sV/conditions/lipoma
p697
I602
sV/conditions/stricture-of-the-esophagus
p698
I603
sV/conditions/male-genitalia-infection
p699
I606
sV/conditions/hypercalcemia
p700
I609
sV/conditions/spondylitis
p701
I531
sV/conditions/testicular-torsion
p702
I611
sV/conditions/hemangioma
p703
I614
sV/conditions/lyme-disease
p704
I615
sV/conditions/acute-otitis-media
p705
I616
sV/conditions/cerebral-edema
p706
I619
sV/conditions/coronary-atherosclerosis
p707
I620
sV/conditions/vacterl-syndrome
p708
I621
sV/conditions/head-injury
p709
I622
sV/conditions/injury-to-the-arm
p710
I623
sV/conditions/ulcerative-colitis
p711
I624
sV/conditions/hyperkalemia
p712
I626
sV/conditions/neurosis
p713
I627
sV/conditions/osteochondrosis
p714
I628
sV/conditions/heart-contusion
p715
I629
sV/conditions/cytomegalovirus-infection
p716
I632
sV/conditions/acne
p717
I633
sV/conditions/hypertension-of-pregnancy
p718
I635
sV/conditions/diverticulitis
p719
I636
sV/conditions/injury-to-the-spinal-cord
p720
I637
sV/conditions/foreign-body-in-the-vagina
p721
I718
sV/conditions/peyronie-disease
p722
I642
sV/conditions/ankylosing-spondylitis
p723
I644
sV/conditions/chronic-constipation
p724
I695
sV/conditions/nonalcoholic-liver-disease-nash
p725
I647
sV/conditions/burn
p726
I768
sV/conditions/threatened-pregnancy
p727
I651
sV/conditions/injury-to-the-shoulder
p728
I167
sV/conditions/heat-stroke
p729
I653
sV/conditions/drug-abuse-barbiturates
p730
I654
sV/conditions/uveitis
p731
I655
sV/conditions/open-wound-of-the-nose
p732
I656
sV/conditions/obesity
p733
I657
sV/conditions/injury-to-the-face
p734
I658
sV/conditions/tooth-abscess
p735
I659
sV/conditions/myasthenia-gravis
p736
I31
sV/conditions/trigger-finger-finger-disorder
p737
I663
sV/conditions/von-willebrand-disease
p738
I799
sV/conditions/anemia-due-to-malignancy
p739
I65
sV/conditions/brachial-neuritis
p740
I667
sV/conditions/urinary-tract-infection
p741
I82
sV/conditions/bruise
p742
I670
sV/conditions/plantar-fasciitis
p743
I672
sV/conditions/aplastic-anemia
p744
I130
sV/conditions/conjunctivitis
p745
I761
sV/conditions/benign-vaginal-discharge-leukorrhea
p746
I780
sV/conditions/oppositional-disorder
p747
I679
sV/conditions/human-immunodeficiency-virus-infection-hiv
p748
I683
sV/conditions/common-cold
p749
I685
sV/conditions/anemia-due-to-chronic-kidney-disease
p750
I187
sV/conditions/malaria
p751
I227
sV/conditions/mononucleosis
p752
I696
sV/conditions/hypothermia
p753
I697
sV/conditions/sjogren-syndrome
p754
I698
sV/conditions/open-wound-due-to-trauma
p755
I701
sV/conditions/pemphigus
p756
I707
sV/conditions/fibromyalgia
p757
I708
sV/conditions/chronic-sinusitis
p758
I709
sV/conditions/lactose-intolerance
p759
I712
sV/conditions/pseudohypoparathyroidism
p760
I314
sV/conditions/dislocation-of-the-foot
p761
I772
sV/conditions/fracture-of-the-pelvis
p762
I746
sV/conditions/orthostatic-hypotension
p763
I717
sV/conditions/placental-abruption
p764
I723
sV/conditions/endocarditis
p765
I732
sV/conditions/persistent-vomiting-of-unknown-cause
p766
I729
sV/conditions/ovarian-torsion
p767
I730
sV/conditions/premenstrual-tension-syndrome
p768
I731
sV/conditions/neuromyelitis-optica
p769
I240
sV/conditions/atelectasis
p770
I734
sV/conditions/chronic-ulcer
p771
I726
sV/conditions/meningioma
p772
I739
sV/conditions/tricuspid-valve-disease
p773
I740
sV/conditions/intussusception
p774
I212
sV/conditions/gynecomastia
p775
I743
sV/conditions/white-blood-cell-disease
p776
I745
sV/conditions/infectious-gastroenteritis
p777
I747
sV/conditions/preeclampsia
p778
I748
sV/conditions/open-wound-of-the-eye
p779
I749
sV/conditions/stenosis-of-the-tear-duct
p780
I751
sV/conditions/dislocation-of-the-elbow
p781
I752
sV/conditions/drug-abuse--2
p782
I753
sV/conditions/volvulus
p783
I758
sV/conditions/wernicke-korsakoff-syndrome
p784
I762
sV/conditions/esophageal-cancer
p785
I763
sV/conditions/atonic-bladder
p786
I595
sV/conditions/athlete-s-foot
p787
I769
sV/conditions/prostate-cancer
p788
I771
sV/conditions/ependymoma
p789
I643
sV/conditions/knee-ligament-or-meniscus-tear
p790
I652
sV/conditions/edward-syndrome
p791
I778
sV/conditions/angina
p792
I782
sV/conditions/omphalitis
p793
I783
sV/conditions/leishmaniasis
p794
I784
sV/conditions/systemic-lupus-erythematosis-sle
p795
I789
sV/conditions/sprain-or-strain
p796
I790
sV/conditions/gallbladder-disease
p797
I791
sV/conditions/conjunctivitis-due-to-virus
p798
I792
sV/conditions/lung-cancer
p799
I796
sV/conditions/migraine
p800
I797
sV/conditions/herniated-disk
p801
I798
sV/conditions/metabolic-disorder
p802
I800
s.